target datalayout = "e-m:e-p270:32:32-p271:32:32-p272:64:64-i64:64-i128:128-f80:128-n8:16:32:64-S128"
target triple = "x86_64-pc-linux-gnu"

; Function Attrs: alwaysinline nounwind willreturn memory(none) uwtable
define internal zeroext i8 @av_clip_uint8_c(i32 noundef %0) #4 {
  %2 = alloca i8, align 1
  %3 = alloca i32, align 4
  store i32 %0, ptr %3, align 4, !tbaa !13
  %4 = load i32, ptr %3, align 4, !tbaa !13
  %5 = and i32 %4, -256
  %6 = icmp ne i32 %5, 0
  br i1 %6, label %7, label %12

7:                                                ; preds = %1
  %8 = load i32, ptr %3, align 4, !tbaa !13
  %9 = xor i32 %8, -1
  %10 = ashr i32 %9, 31
  %11 = trunc i32 %10 to i8
  store i8 %11, ptr %2, align 1
  br label %15

12:                                               ; preds = %1
  %13 = load i32, ptr %3, align 4, !tbaa !13
  %14 = trunc i32 %13 to i8
  store i8 %14, ptr %2, align 1
  br label %15

15:                                               ; preds = %12, %7
  %16 = load i8, ptr %2, align 1
  ret i8 %16
}

; Function Attrs: nounwind uwtable
define internal void @add_rect_clamped_c(ptr noundef %0, ptr noundef %1, i32 noundef %2, ptr noundef %3, i32 noundef %4, i32 noundef %5, i32 noundef %6) #1 {
  %8 = alloca ptr, align 8
  %9 = alloca ptr, align 8
  %10 = alloca i32, align 4
  %11 = alloca ptr, align 8
  %12 = alloca i32, align 4
  %13 = alloca i32, align 4
  %14 = alloca i32, align 4
  %15 = alloca i32, align 4
  %16 = alloca i32, align 4
  store ptr %0, ptr %8, align 8, !tbaa !11
  store ptr %1, ptr %9, align 8, !tbaa !21
  store i32 %2, ptr %10, align 4, !tbaa !13
  store ptr %3, ptr %11, align 8, !tbaa !21
  store i32 %4, ptr %12, align 4, !tbaa !13
  store i32 %5, ptr %13, align 4, !tbaa !13
  store i32 %6, ptr %14, align 4, !tbaa !13
  call void @llvm.lifetime.start.p0(i64 4, ptr %15) #5
  call void @llvm.lifetime.start.p0(i64 4, ptr %16) #5
  store i32 0, ptr %16, align 4, !tbaa !13
  br label %17

17:                                               ; preds = %86, %7
  %18 = load i32, ptr %16, align 4, !tbaa !13
  %19 = load i32, ptr %14, align 4, !tbaa !13
  %20 = icmp slt i32 %18, %19
  br i1 %20, label %21, label %89

21:                                               ; preds = %17
  store i32 0, ptr %15, align 4, !tbaa !13
  br label %22

22:                                               ; preds = %70, %21
  %23 = load i32, ptr %15, align 4, !tbaa !13
  %24 = load i32, ptr %13, align 4, !tbaa !13
  %25 = icmp slt i32 %23, %24
  br i1 %25, label %26, label %73

26:                                               ; preds = %22
  %27 = load ptr, ptr %9, align 8, !tbaa !21
  %28 = load i32, ptr %15, align 4, !tbaa !13
  %29 = sext i32 %28 to i64
  %30 = getelementptr inbounds i16, ptr %27, i64 %29
  %31 = load i16, ptr %30, align 2, !tbaa !23
  %32 = zext i16 %31 to i32
  %33 = add nsw i32 %32, 32
  %34 = ashr i32 %33, 6
  %35 = load ptr, ptr %11, align 8, !tbaa !21
  %36 = load i32, ptr %15, align 4, !tbaa !13
  %37 = sext i32 %36 to i64
  %38 = getelementptr inbounds i16, ptr %35, i64 %37
  %39 = load i16, ptr %38, align 2, !tbaa !23
  %40 = sext i16 %39 to i32
  %41 = add nsw i32 %34, %40
  %42 = call zeroext i8 @av_clip_uint8_c(i32 noundef %41) #6
  %43 = load ptr, ptr %8, align 8, !tbaa !11
  %44 = load i32, ptr %15, align 4, !tbaa !13
  %45 = sext i32 %44 to i64
  %46 = getelementptr inbounds i8, ptr %43, i64 %45
  store i8 %42, ptr %46, align 1, !tbaa !15
  %47 = load ptr, ptr %9, align 8, !tbaa !21
  %48 = load i32, ptr %15, align 4, !tbaa !13
  %49 = add nsw i32 %48, 1
  %50 = sext i32 %49 to i64
  %51 = getelementptr inbounds i16, ptr %47, i64 %50
  %52 = load i16, ptr %51, align 2, !tbaa !23
  %53 = zext i16 %52 to i32
  %54 = add nsw i32 %53, 32
  %55 = ashr i32 %54, 6
  %56 = load ptr, ptr %11, align 8, !tbaa !21
  %57 = load i32, ptr %15, align 4, !tbaa !13
  %58 = add nsw i32 %57, 1
  %59 = sext i32 %58 to i64
  %60 = getelementptr inbounds i16, ptr %56, i64 %59
  %61 = load i16, ptr %60, align 2, !tbaa !23
  %62 = sext i16 %61 to i32
  %63 = add nsw i32 %55, %62
  %64 = call zeroext i8 @av_clip_uint8_c(i32 noundef %63) #6
  %65 = load ptr, ptr %8, align 8, !tbaa !11
  %66 = load i32, ptr %15, align 4, !tbaa !13
  %67 = add nsw i32 %66, 1
  %68 = sext i32 %67 to i64
  %69 = getelementptr inbounds i8, ptr %65, i64 %68
  store i8 %64, ptr %69, align 1, !tbaa !15
  br label %70

70:                                               ; preds = %26
  %71 = load i32, ptr %15, align 4, !tbaa !13
  %72 = add nsw i32 %71, 2
  store i32 %72, ptr %15, align 4, !tbaa !13
  br label %22, !llvm.loop !25

73:                                               ; preds = %22
  %74 = load i32, ptr %10, align 4, !tbaa !13
  %75 = load ptr, ptr %8, align 8, !tbaa !11
  %76 = sext i32 %74 to i64
  %77 = getelementptr inbounds i8, ptr %75, i64 %76
  store ptr %77, ptr %8, align 8, !tbaa !11
  %78 = load i32, ptr %10, align 4, !tbaa !13
  %79 = load ptr, ptr %9, align 8, !tbaa !21
  %80 = sext i32 %78 to i64
  %81 = getelementptr inbounds i16, ptr %79, i64 %80
  store ptr %81, ptr %9, align 8, !tbaa !21
  %82 = load i32, ptr %12, align 4, !tbaa !13
  %83 = load ptr, ptr %11, align 8, !tbaa !21
  %84 = sext i32 %82 to i64
  %85 = getelementptr inbounds i16, ptr %83, i64 %84
  store ptr %85, ptr %11, align 8, !tbaa !21
  br label %86

86:                                               ; preds = %73
  %87 = load i32, ptr %16, align 4, !tbaa !13
  %88 = add nsw i32 %87, 1
  store i32 %88, ptr %16, align 4, !tbaa !13
  br label %17, !llvm.loop !26

89:                                               ; preds = %17
  call void @llvm.lifetime.end.p0(i64 4, ptr %16) #5
  call void @llvm.lifetime.end.p0(i64 4, ptr %15) #5
  ret void
}