; Function Attrs: nofree norecurse nosync nounwind memory(argmem: readwrite) uwtable
define internal void @add_rect_clamped_c(ptr noundef writeonly captures(none) %0, ptr noundef readonly captures(none) %1, i32 noundef %2, ptr noundef readonly captures(none) %3, i32 noundef %4, i32 noundef %5, i32 noundef %6) #1 {
  %8 = icmp sgt i32 %6, 0
  br i1 %8, label %.preheader.lr.ph, label %._crit_edge35

.preheader.lr.ph:                                 ; preds = %7
  %9 = icmp sgt i32 %5, 0
  %10 = sext i32 %2 to i64
  %11 = sext i32 %4 to i64
  br i1 %9, label %.preheader.us.preheader, label %._crit_edge35

.preheader.us.preheader:                          ; preds = %.preheader.lr.ph
  %12 = zext nneg i32 %5 to i64
  br label %.preheader.us

.preheader.us:                                    ; preds = %.preheader.us.preheader, %._crit_edge.us
  %.034.us = phi i32 [ %43, %._crit_edge.us ], [ 0, %.preheader.us.preheader ]
  %.02433.us = phi ptr [ %40, %._crit_edge.us ], [ %0, %.preheader.us.preheader ]
  %.02532.us = phi ptr [ %41, %._crit_edge.us ], [ %1, %.preheader.us.preheader ]
  %.02631.us = phi ptr [ %42, %._crit_edge.us ], [ %3, %.preheader.us.preheader ]
  br label %13

13:                                               ; preds = %.preheader.us, %13
  %indvars.iv = phi i64 [ 0, %.preheader.us ], [ %indvars.iv.next, %13 ]
  %14 = getelementptr inbounds nuw i16, ptr %.02532.us, i64 %indvars.iv
  %15 = load i16, ptr %14, align 2, !tbaa !17
  %16 = zext i16 %15 to i32
  %17 = add nuw nsw i32 %16, 32
  %18 = lshr i32 %17, 6
  %19 = getelementptr inbounds nuw i16, ptr %.02631.us, i64 %indvars.iv
  %20 = load i16, ptr %19, align 2, !tbaa !17
  %21 = sext i16 %20 to i32
  %22 = add nsw i32 %18, %21
  %.not.i.us = icmp ult i32 %22, 256
  %isnotneg.i.us = icmp sgt i32 %22, -1
  %23 = sext i1 %isnotneg.i.us to i8
  %24 = trunc nuw i32 %22 to i8
  %.0.i.us = select i1 %.not.i.us, i8 %24, i8 %23
  %25 = getelementptr inbounds nuw i8, ptr %.02433.us, i64 %indvars.iv
  store i8 %.0.i.us, ptr %25, align 1, !tbaa !11
  %26 = or disjoint i64 %indvars.iv, 1
  %27 = getelementptr inbounds nuw i16, ptr %.02532.us, i64 %26
  %28 = load i16, ptr %27, align 2, !tbaa !17
  %29 = zext i16 %28 to i32
  %30 = add nuw nsw i32 %29, 32
  %31 = lshr i32 %30, 6
  %32 = getelementptr inbounds nuw i16, ptr %.02631.us, i64 %26
  %33 = load i16, ptr %32, align 2, !tbaa !17
  %34 = sext i16 %33 to i32
  %35 = add nsw i32 %31, %34
  %.not.i27.us = icmp ult i32 %35, 256
  %isnotneg.i28.us = icmp sgt i32 %35, -1
  %36 = sext i1 %isnotneg.i28.us to i8
  %37 = trunc nuw i32 %35 to i8
  %.0.i29.us = select i1 %.not.i27.us, i8 %37, i8 %36
  %38 = getelementptr inbounds nuw i8, ptr %.02433.us, i64 %26
  store i8 %.0.i29.us, ptr %38, align 1, !tbaa !11
  %indvars.iv.next = add nuw nsw i64 %indvars.iv, 2
  %39 = icmp samesign ult i64 %indvars.iv.next, %12
  br i1 %39, label %13, label %._crit_edge.us, !llvm.loop !19

._crit_edge.us:                                   ; preds = %13
  %40 = getelementptr inbounds i8, ptr %.02433.us, i64 %10
  %41 = getelementptr inbounds i16, ptr %.02532.us, i64 %10
  %42 = getelementptr inbounds i16, ptr %.02631.us, i64 %11
  %43 = add nuw nsw i32 %.034.us, 1
  %exitcond.not = icmp eq i32 %43, %6
  br i1 %exitcond.not, label %._crit_edge35, label %.preheader.us, !llvm.loop !20

._crit_edge35:                                    ; preds = %._crit_edge.us, %.preheader.lr.ph, %7
  ret void
}